; Function Attrs: nounwind uwtable
define hidden zeroext i1 @SDL_StopHapticRumble_REAL(ptr noundef %0) local_unnamed_addr #0 {
  %2 = tail call zeroext i1 @SDL_ObjectValid(ptr noundef %0, i32 noundef 6) #9
  br i1 %2, label %5, label %3

3:                                                ; preds = %1
  %4 = tail call zeroext i1 (ptr, ...) @SDL_SetError_REAL(ptr noundef nonnull @.str, ptr noundef nonnull @.str.1) #9
  br label %SDL_StopHapticEffect_REAL.exit

5:                                                ; preds = %1
  %6 = getelementptr inbounds nuw i8, ptr %0, i64 52
  %7 = load i32, ptr %6, align 4
  %8 = icmp slt i32 %7, 0
  br i1 %8, label %9, label %11

9:                                                ; preds = %5
  %10 = tail call zeroext i1 (ptr, ...) @SDL_SetError_REAL(ptr noundef nonnull @.str.19) #9
  br label %SDL_StopHapticEffect_REAL.exit

11:                                               ; preds = %5
  %12 = tail call zeroext i1 @SDL_ObjectValid(ptr noundef nonnull %0, i32 noundef 6) #9
  br i1 %12, label %15, label %13

13:                                               ; preds = %11
  %14 = tail call zeroext i1 (ptr, ...) @SDL_SetError_REAL(ptr noundef nonnull @.str, ptr noundef nonnull @.str.1) #9
  br label %SDL_StopHapticEffect_REAL.exit

15:                                               ; preds = %11
  %16 = tail call zeroext i1 @SDL_HIDAPI_HapticIsHidapi(ptr noundef nonnull %0) #9
  br i1 %16, label %17, label %19

17:                                               ; preds = %15
  %18 = tail call zeroext i1 @SDL_HIDAPI_HapticStopEffect(ptr noundef nonnull %0, i32 noundef %7) #9
  br label %SDL_StopHapticEffect_REAL.exit

19:                                               ; preds = %15
  %20 = getelementptr inbounds nuw i8, ptr %0, i64 24
  %21 = load i32, ptr %20, align 8
  %.not.i.i = icmp slt i32 %7, %21
  br i1 %.not.i.i, label %23, label %ValidEffect.exit.i

ValidEffect.exit.i:                               ; preds = %19
  %22 = tail call zeroext i1 (ptr, ...) @SDL_SetError_REAL(ptr noundef nonnull @.str.23) #9
  br label %SDL_StopHapticEffect_REAL.exit

23:                                               ; preds = %19
  %24 = getelementptr inbounds nuw i8, ptr %0, i64 16
  %25 = load ptr, ptr %24, align 8
  %26 = zext nneg i32 %7 to i64
  %27 = getelementptr inbounds nuw %struct.haptic_effect, ptr %25, i64 %26
  %28 = tail call zeroext i1 @SDL_SYS_HapticStopEffect(ptr noundef nonnull %0, ptr noundef %27) #9
  br label %SDL_StopHapticEffect_REAL.exit

SDL_StopHapticEffect_REAL.exit:                   ; preds = %23, %ValidEffect.exit.i, %17, %13, %9, %3
  %.0 = phi i1 [ %10, %9 ], [ false, %3 ], [ %18, %17 ], [ false, %13 ], [ false, %ValidEffect.exit.i ], [ %28, %23 ]
  ret i1 %.0
}